target datalayout = "e-m:e-p270:32:32-p271:32:32-p272:64:64-i64:64-i128:128-f80:128-n8:16:32:64-S128"
target triple = "x86_64-pc-linux-gnu"

%struct.CVodeMemRec = type { double, ptr, ptr, i32, i32, i32, double, double, ptr, i32, ptr, ptr, i32, ptr, i32, i32, double, double, ptr, i32, i32, i32, ptr, ptr, ptr, i32, i32, ptr, ptr, ptr, i32, double, i32, i32, double, ptr, ptr, i32, ptr, ptr, i32, i32, i32, double, ptr, ptr, [13 x ptr], ptr, ptr, ptr, ptr, ptr, [13 x ptr], ptr, ptr, ptr, ptr, [13 x ptr], ptr, ptr, ptr, ptr, ptr, i32, [13 x ptr], ptr, ptr, ptr, ptr, ptr, i32, double, i32, i32, i32, i32, i32, double, double, double, double, double, double, double, double, [14 x double], [6 x double], [13 x double], double, double, double, double, double, double, double, double, double, double, double, i32, ptr, i32, i64, i32, i32, i32, i32, i32, double, double, double, i64, i64, i64, i64, i64, i64, i64, i64, i64, ptr, i64, i64, ptr, i64, i64, i64, i64, i64, i64, i32, i64, i64, i64, i64, i64, i64, double, double, double, ptr, ptr, ptr, ptr, ptr, i32, i32, i64, double, double, double, i32, double, i32, i32, i32, i32, i32, i32, i32, i32, i32, i32, i32, i32, i32, i32, i32, i32, ptr, ptr, ptr, i32, [6 x [4 x double]], i32, i64, ptr, i32, ptr, ptr, double, double, double, ptr, ptr, ptr, double, double, i32, i32, i64, ptr, i32, i32, ptr, i32 }
%struct.CVadjMemRec = type { double, double, i32, i32, double, ptr, i32, ptr, i32, ptr, i32, ptr, i64, ptr, i64, i32, ptr, ptr, ptr, ptr, i32, i32, i32, i32, [13 x ptr], [13 x ptr], [13 x double], ptr, ptr, i64 }
%struct.CVodeBMemRec = type { i32, double, ptr, i32, i32, ptr, ptr, ptr, ptr, ptr, ptr, ptr, ptr, ptr, double, ptr, ptr }

@.str = private unnamed_addr constant [9 x i8] c"CVBBDPRE\00", align 1
@.str.2 = private unnamed_addr constant [27 x i8] c"Integrator memory is NULL.\00", align 1
@.str.11 = private unnamed_addr constant [53 x i8] c"Illegal attempt to call before calling CVodeAdjInit.\00", align 1
@.str.12 = private unnamed_addr constant [39 x i8] c"Illegal value for the which parameter.\00", align 1
@.str.13 = private unnamed_addr constant [17 x i8] c"CVBBDPrecReInitB\00", align 1

; Function Attrs: nounwind uwtable
define i32 @CVBBDPrecReInitB(ptr noundef %0, i32 noundef %1, i64 noundef %2, i64 noundef %3, double noundef %4) #0 {
  %6 = alloca i32, align 4
  %7 = alloca ptr, align 8
  %8 = alloca i32, align 4
  %9 = alloca i64, align 8
  %10 = alloca i64, align 8
  %11 = alloca double, align 8
  %12 = alloca ptr, align 8
  %13 = alloca ptr, align 8
  %14 = alloca ptr, align 8
  %15 = alloca ptr, align 8
  %16 = alloca i32, align 4
  %17 = alloca i32, align 4
  store ptr %0, ptr %7, align 8, !tbaa !3
  store i32 %1, ptr %8, align 4, !tbaa !54
  store i64 %2, ptr %9, align 8, !tbaa !7
  store i64 %3, ptr %10, align 8, !tbaa !7
  store double %4, ptr %11, align 8, !tbaa !9
  call void @llvm.lifetime.start.p0(i64 8, ptr %12) #5
  call void @llvm.lifetime.start.p0(i64 8, ptr %13) #5
  call void @llvm.lifetime.start.p0(i64 8, ptr %14) #5
  call void @llvm.lifetime.start.p0(i64 8, ptr %15) #5
  call void @llvm.lifetime.start.p0(i64 4, ptr %16) #5
  %18 = load ptr, ptr %7, align 8, !tbaa !3
  %19 = icmp eq ptr %18, null
  br i1 %19, label %20, label %21

20:                                               ; preds = %5
  call void (ptr, i32, ptr, ptr, ptr, ...) @cvProcessError(ptr noundef null, i32 noundef -1, ptr noundef @.str, ptr noundef @.str.13, ptr noundef @.str.2)
  store i32 -1, ptr %6, align 4
  store i32 1, ptr %17, align 4
  br label %68

21:                                               ; preds = %5
  %22 = load ptr, ptr %7, align 8, !tbaa !3
  store ptr %22, ptr %12, align 8, !tbaa !11
  %23 = load ptr, ptr %12, align 8, !tbaa !11
  %24 = getelementptr inbounds nuw %struct.CVodeMemRec, ptr %23, i32 0, i32 195
  %25 = load i32, ptr %24, align 8, !tbaa !59
  %26 = icmp eq i32 %25, 0
  br i1 %26, label %27, label %29

27:                                               ; preds = %21
  %28 = load ptr, ptr %12, align 8, !tbaa !11
  call void (ptr, i32, ptr, ptr, ptr, ...) @cvProcessError(ptr noundef %28, i32 noundef -101, ptr noundef @.str, ptr noundef @.str.13, ptr noundef @.str.11)
  store i32 -101, ptr %6, align 4
  store i32 1, ptr %17, align 4
  br label %68

29:                                               ; preds = %21
  %30 = load ptr, ptr %12, align 8, !tbaa !11
  %31 = getelementptr inbounds nuw %struct.CVodeMemRec, ptr %30, i32 0, i32 194
  %32 = load ptr, ptr %31, align 8, !tbaa !60
  store ptr %32, ptr %13, align 8, !tbaa !61
  %33 = load i32, ptr %8, align 4, !tbaa !54
  %34 = load ptr, ptr %13, align 8, !tbaa !61
  %35 = getelementptr inbounds nuw %struct.CVadjMemRec, ptr %34, i32 0, i32 6
  %36 = load i32, ptr %35, align 8, !tbaa !62
  %37 = icmp sge i32 %33, %36
  br i1 %37, label %38, label %40

38:                                               ; preds = %29
  %39 = load ptr, ptr %12, align 8, !tbaa !11
  call void (ptr, i32, ptr, ptr, ptr, ...) @cvProcessError(ptr noundef %39, i32 noundef -3, ptr noundef @.str, ptr noundef @.str.13, ptr noundef @.str.12)
  store i32 -3, ptr %6, align 4
  store i32 1, ptr %17, align 4
  br label %68

40:                                               ; preds = %29
  %41 = load ptr, ptr %13, align 8, !tbaa !61
  %42 = getelementptr inbounds nuw %struct.CVadjMemRec, ptr %41, i32 0, i32 5
  %43 = load ptr, ptr %42, align 8, !tbaa !67
  store ptr %43, ptr %14, align 8, !tbaa !68
  br label %44

44:                                               ; preds = %54, %40
  %45 = load ptr, ptr %14, align 8, !tbaa !68
  %46 = icmp ne ptr %45, null
  br i1 %46, label %47, label %58

47:                                               ; preds = %44
  %48 = load i32, ptr %8, align 4, !tbaa !54
  %49 = load ptr, ptr %14, align 8, !tbaa !68
  %50 = getelementptr inbounds nuw %struct.CVodeBMemRec, ptr %49, i32 0, i32 0
  %51 = load i32, ptr %50, align 8, !tbaa !69
  %52 = icmp eq i32 %48, %51
  br i1 %52, label %53, label %54

53:                                               ; preds = %47
  br label %58

54:                                               ; preds = %47
  %55 = load ptr, ptr %14, align 8, !tbaa !68
  %56 = getelementptr inbounds nuw %struct.CVodeBMemRec, ptr %55, i32 0, i32 16
  %57 = load ptr, ptr %56, align 8, !tbaa !71
  store ptr %57, ptr %14, align 8, !tbaa !68
  br label %44, !llvm.loop !86

58:                                               ; preds = %53, %44
  %59 = load ptr, ptr %14, align 8, !tbaa !68
  %60 = getelementptr inbounds nuw %struct.CVodeBMemRec, ptr %59, i32 0, i32 2
  %61 = load ptr, ptr %60, align 8, !tbaa !74
  store ptr %61, ptr %15, align 8, !tbaa !3
  %62 = load ptr, ptr %15, align 8, !tbaa !3
  %63 = load i64, ptr %9, align 8, !tbaa !7
  %64 = load i64, ptr %10, align 8, !tbaa !7
  %65 = load double, ptr %11, align 8, !tbaa !9
  %66 = call i32 @CVBBDPrecReInit(ptr noundef %62, i64 noundef %63, i64 noundef %64, double noundef %65)
  store i32 %66, ptr %16, align 4, !tbaa !54
  %67 = load i32, ptr %16, align 4, !tbaa !54
  store i32 %67, ptr %6, align 4
  store i32 1, ptr %17, align 4
  br label %68

68:                                               ; preds = %58, %38, %27, %20
  call void @llvm.lifetime.end.p0(i64 4, ptr %16) #5
  call void @llvm.lifetime.end.p0(i64 8, ptr %15) #5
  call void @llvm.lifetime.end.p0(i64 8, ptr %14) #5
  call void @llvm.lifetime.end.p0(i64 8, ptr %13) #5
  call void @llvm.lifetime.end.p0(i64 8, ptr %12) #5
  %69 = load i32, ptr %6, align 4
  ret i32 %69
}