; Function Attrs: nounwind uwtable
define range(i32 -101, 1) i32 @CVBBDPrecReInitB(ptr noundef %0, i32 noundef %1, i64 noundef %2, i64 noundef %3, double noundef %4) local_unnamed_addr #0 {
  %6 = icmp eq ptr %0, null
  br i1 %6, label %7, label %8

7:                                                ; preds = %5
  tail call void (ptr, i32, ptr, ptr, ptr, ...) @cvProcessError(ptr noundef null, i32 noundef -1, ptr noundef nonnull @.str, ptr noundef nonnull @.str.13, ptr noundef nonnull @.str.2) #6
  br label %27

8:                                                ; preds = %5
  %9 = getelementptr inbounds nuw i8, ptr %0, i64 2200
  %10 = load i32, ptr %9, align 8, !tbaa !61
  %11 = icmp eq i32 %10, 0
  br i1 %11, label %12, label %13

12:                                               ; preds = %8
  tail call void (ptr, i32, ptr, ptr, ptr, ...) @cvProcessError(ptr noundef nonnull %0, i32 noundef -101, ptr noundef nonnull @.str, ptr noundef nonnull @.str.13, ptr noundef nonnull @.str.11) #6
  br label %27

13:                                               ; preds = %8
  %14 = getelementptr inbounds nuw i8, ptr %0, i64 2192
  %15 = load ptr, ptr %14, align 8, !tbaa !62
  %16 = getelementptr inbounds nuw i8, ptr %15, i64 40
  %17 = load i32, ptr %16, align 8, !tbaa !63
  %.not = icmp slt i32 %1, %17
  br i1 %.not, label %19, label %18

18:                                               ; preds = %13
  tail call void (ptr, i32, ptr, ptr, ptr, ...) @cvProcessError(ptr noundef nonnull %0, i32 noundef -3, ptr noundef nonnull @.str, ptr noundef nonnull @.str.13, ptr noundef nonnull @.str.12) #6
  br label %27

19:                                               ; preds = %13
  %20 = getelementptr inbounds nuw i8, ptr %15, i64 32
  br label %.lr.ph

.lr.ph:                                           ; preds = %.lr.ph, %19
  %.019.sink.in = phi ptr [ %23, %.lr.ph ], [ %20, %19 ]
  %.019.sink = load ptr, ptr %.019.sink.in, align 8, !tbaa !68, !nonnull !69, !noundef !69
  %21 = load i32, ptr %.019.sink, align 8, !tbaa !70
  %22 = icmp eq i32 %1, %21
  %23 = getelementptr inbounds nuw i8, ptr %.019.sink, i64 120
  br i1 %22, label %._crit_edge, label %.lr.ph

._crit_edge:                                      ; preds = %.lr.ph
  %24 = getelementptr inbounds nuw i8, ptr %.019.sink, i64 16
  %25 = load ptr, ptr %24, align 8, !tbaa !73
  %26 = tail call i32 @CVBBDPrecReInit(ptr noundef %25, i64 noundef %2, i64 noundef %3, double noundef %4)
  br label %27

27:                                               ; preds = %._crit_edge, %18, %12, %7
  %.0 = phi i32 [ -1, %7 ], [ -101, %12 ], [ -3, %18 ], [ %26, %._crit_edge ]
  ret i32 %.0
}